target datalayout = "e-m:e-p270:32:32-p271:32:32-p272:64:64-i64:64-i128:128-f80:128-n8:16:32:64-S128"
target triple = "x86_64-pc-linux-gnu"

%struct._php_stream_bucket = type { ptr, ptr, ptr, ptr, i64, i8, i8, i32 }
%struct._php_stream_bucket_brigade = type { ptr, ptr }

; Function Attrs: nounwind uwtable
define void @php_stream_bucket_unlink(ptr noundef %0) #0 {
  %2 = alloca ptr, align 8
  store ptr %0, ptr %2, align 8
  %3 = load ptr, ptr %2, align 8
  %4 = getelementptr inbounds %struct._php_stream_bucket, ptr %3, i32 0, i32 1
  %5 = load ptr, ptr %4, align 8
  %6 = icmp ne ptr %5, null
  br i1 %6, label %7, label %15

7:                                                ; preds = %1
  %8 = load ptr, ptr %2, align 8
  %9 = getelementptr inbounds %struct._php_stream_bucket, ptr %8, i32 0, i32 0
  %10 = load ptr, ptr %9, align 8
  %11 = load ptr, ptr %2, align 8
  %12 = getelementptr inbounds %struct._php_stream_bucket, ptr %11, i32 0, i32 1
  %13 = load ptr, ptr %12, align 8
  %14 = getelementptr inbounds %struct._php_stream_bucket, ptr %13, i32 0, i32 0
  store ptr %10, ptr %14, align 8
  br label %29

15:                                               ; preds = %1
  %16 = load ptr, ptr %2, align 8
  %17 = getelementptr inbounds %struct._php_stream_bucket, ptr %16, i32 0, i32 2
  %18 = load ptr, ptr %17, align 8
  %19 = icmp ne ptr %18, null
  br i1 %19, label %20, label %28

20:                                               ; preds = %15
  %21 = load ptr, ptr %2, align 8
  %22 = getelementptr inbounds %struct._php_stream_bucket, ptr %21, i32 0, i32 0
  %23 = load ptr, ptr %22, align 8
  %24 = load ptr, ptr %2, align 8
  %25 = getelementptr inbounds %struct._php_stream_bucket, ptr %24, i32 0, i32 2
  %26 = load ptr, ptr %25, align 8
  %27 = getelementptr inbounds %struct._php_stream_bucket_brigade, ptr %26, i32 0, i32 0
  store ptr %23, ptr %27, align 8
  br label %28

28:                                               ; preds = %20, %15
  br label %29

29:                                               ; preds = %28, %7
  %30 = load ptr, ptr %2, align 8
  %31 = getelementptr inbounds %struct._php_stream_bucket, ptr %30, i32 0, i32 0
  %32 = load ptr, ptr %31, align 8
  %33 = icmp ne ptr %32, null
  br i1 %33, label %34, label %42

34:                                               ; preds = %29
  %35 = load ptr, ptr %2, align 8
  %36 = getelementptr inbounds %struct._php_stream_bucket, ptr %35, i32 0, i32 1
  %37 = load ptr, ptr %36, align 8
  %38 = load ptr, ptr %2, align 8
  %39 = getelementptr inbounds %struct._php_stream_bucket, ptr %38, i32 0, i32 0
  %40 = load ptr, ptr %39, align 8
  %41 = getelementptr inbounds %struct._php_stream_bucket, ptr %40, i32 0, i32 1
  store ptr %37, ptr %41, align 8
  br label %56

42:                                               ; preds = %29
  %43 = load ptr, ptr %2, align 8
  %44 = getelementptr inbounds %struct._php_stream_bucket, ptr %43, i32 0, i32 2
  %45 = load ptr, ptr %44, align 8
  %46 = icmp ne ptr %45, null
  br i1 %46, label %47, label %55

47:                                               ; preds = %42
  %48 = load ptr, ptr %2, align 8
  %49 = getelementptr inbounds %struct._php_stream_bucket, ptr %48, i32 0, i32 1
  %50 = load ptr, ptr %49, align 8
  %51 = load ptr, ptr %2, align 8
  %52 = getelementptr inbounds %struct._php_stream_bucket, ptr %51, i32 0, i32 2
  %53 = load ptr, ptr %52, align 8
  %54 = getelementptr inbounds %struct._php_stream_bucket_brigade, ptr %53, i32 0, i32 1
  store ptr %50, ptr %54, align 8
  br label %55

55:                                               ; preds = %47, %42
  br label %56

56:                                               ; preds = %55, %34
  %57 = load ptr, ptr %2, align 8
  %58 = getelementptr inbounds %struct._php_stream_bucket, ptr %57, i32 0, i32 2
  store ptr null, ptr %58, align 8
  %59 = load ptr, ptr %2, align 8
  %60 = getelementptr inbounds %struct._php_stream_bucket, ptr %59, i32 0, i32 1
  store ptr null, ptr %60, align 8
  %61 = load ptr, ptr %2, align 8
  %62 = getelementptr inbounds %struct._php_stream_bucket, ptr %61, i32 0, i32 0
  store ptr null, ptr %62, align 8
  ret void
}