; Function Attrs: mustprogress nofree norecurse nosync nounwind willreturn memory(write, argmem: readwrite, inaccessiblemem: none) uwtable
define void @php_stream_bucket_unlink(ptr nocapture noundef %0) local_unnamed_addr #7 {
  %2 = getelementptr inbounds i8, ptr %0, i64 8
  %3 = load ptr, ptr %2, align 8
  %.not = icmp eq ptr %3, null
  br i1 %.not, label %6, label %4

4:                                                ; preds = %1
  %5 = load ptr, ptr %0, align 8
  store ptr %5, ptr %3, align 8
  br label %10

6:                                                ; preds = %1
  %7 = getelementptr inbounds i8, ptr %0, i64 16
  %8 = load ptr, ptr %7, align 8
  %.not18 = icmp eq ptr %8, null
  %.pre = load ptr, ptr %0, align 8
  br i1 %.not18, label %10, label %9

9:                                                ; preds = %6
  store ptr %.pre, ptr %8, align 8
  br label %10

10:                                               ; preds = %6, %9, %4
  %11 = phi ptr [ %.pre, %6 ], [ %.pre, %9 ], [ %5, %4 ]
  %.not19 = icmp eq ptr %11, null
  br i1 %.not19, label %12, label %.sink.split

12:                                               ; preds = %10
  %13 = getelementptr inbounds i8, ptr %0, i64 16
  %14 = load ptr, ptr %13, align 8
  %.not20 = icmp eq ptr %14, null
  br i1 %.not20, label %17, label %.sink.split

.sink.split:                                      ; preds = %12, %10
  %.sink22 = phi ptr [ %11, %10 ], [ %14, %12 ]
  %15 = load ptr, ptr %2, align 8
  %16 = getelementptr inbounds i8, ptr %.sink22, i64 8
  store ptr %15, ptr %16, align 8
  br label %17

17:                                               ; preds = %.sink.split, %12
  tail call void @llvm.memset.p0.i64(ptr noundef nonnull align 8 dereferenceable(24) %0, i8 0, i64 24, i1 false)
  ret void
}